; Function Attrs: nounwind uwtable
define dso_local range(i32 -1, 1) i32 @zend_try_assign_typed_ref_null(ptr noundef %0) local_unnamed_addr #2 {
  %2 = alloca %struct._zval_struct, align 8
  call void @llvm.lifetime.start.p0(i64 16, ptr nonnull %2) #34
  %3 = getelementptr inbounds nuw i8, ptr %2, i64 8
  store i32 1, ptr %3, align 8, !tbaa !42
  %4 = call i32 @zend_try_assign_typed_ref(ptr noundef %0, ptr noundef nonnull %2)
  call void @llvm.lifetime.end.p0(i64 16, ptr nonnull %2) #34
  ret i32 %4
}